target datalayout = "e-m:e-p270:32:32-p271:32:32-p272:64:64-i64:64-i128:128-f80:128-n8:16:32:64-S128"
target triple = "x86_64-pc-linux-gnu"

%struct.SHA256state_st = type { [8 x i32], i32, i32, [16 x i32], i32, i32 }

; Function Attrs: nounwind uwtable
define i32 @SHA256_Init(ptr noundef %0) #0 {
  %2 = alloca ptr, align 8
  store ptr %0, ptr %2, align 8, !tbaa !3
  %3 = load ptr, ptr %2, align 8, !tbaa !3
  call void @llvm.memset.p0.i64(ptr align 4 %3, i8 0, i64 112, i1 false)
  %4 = load ptr, ptr %2, align 8, !tbaa !3
  %5 = getelementptr inbounds nuw %struct.SHA256state_st, ptr %4, i32 0, i32 0
  %6 = getelementptr inbounds [8 x i32], ptr %5, i64 0, i64 0
  store i32 1779033703, ptr %6, align 4, !tbaa !8
  %7 = load ptr, ptr %2, align 8, !tbaa !3
  %8 = getelementptr inbounds nuw %struct.SHA256state_st, ptr %7, i32 0, i32 0
  %9 = getelementptr inbounds [8 x i32], ptr %8, i64 0, i64 1
  store i32 -1150833019, ptr %9, align 4, !tbaa !8
  %10 = load ptr, ptr %2, align 8, !tbaa !3
  %11 = getelementptr inbounds nuw %struct.SHA256state_st, ptr %10, i32 0, i32 0
  %12 = getelementptr inbounds [8 x i32], ptr %11, i64 0, i64 2
  store i32 1013904242, ptr %12, align 4, !tbaa !8
  %13 = load ptr, ptr %2, align 8, !tbaa !3
  %14 = getelementptr inbounds nuw %struct.SHA256state_st, ptr %13, i32 0, i32 0
  %15 = getelementptr inbounds [8 x i32], ptr %14, i64 0, i64 3
  store i32 -1521486534, ptr %15, align 4, !tbaa !8
  %16 = load ptr, ptr %2, align 8, !tbaa !3
  %17 = getelementptr inbounds nuw %struct.SHA256state_st, ptr %16, i32 0, i32 0
  %18 = getelementptr inbounds [8 x i32], ptr %17, i64 0, i64 4
  store i32 1359893119, ptr %18, align 4, !tbaa !8
  %19 = load ptr, ptr %2, align 8, !tbaa !3
  %20 = getelementptr inbounds nuw %struct.SHA256state_st, ptr %19, i32 0, i32 0
  %21 = getelementptr inbounds [8 x i32], ptr %20, i64 0, i64 5
  store i32 -1694144372, ptr %21, align 4, !tbaa !8
  %22 = load ptr, ptr %2, align 8, !tbaa !3
  %23 = getelementptr inbounds nuw %struct.SHA256state_st, ptr %22, i32 0, i32 0
  %24 = getelementptr inbounds [8 x i32], ptr %23, i64 0, i64 6
  store i32 528734635, ptr %24, align 4, !tbaa !8
  %25 = load ptr, ptr %2, align 8, !tbaa !3
  %26 = getelementptr inbounds nuw %struct.SHA256state_st, ptr %25, i32 0, i32 0
  %27 = getelementptr inbounds [8 x i32], ptr %26, i64 0, i64 7
  store i32 1541459225, ptr %27, align 4, !tbaa !8
  %28 = load ptr, ptr %2, align 8, !tbaa !3
  %29 = getelementptr inbounds nuw %struct.SHA256state_st, ptr %28, i32 0, i32 5
  store i32 32, ptr %29, align 4, !tbaa !10
  ret i32 1
}